target datalayout = "e-m:e-p270:32:32-p271:32:32-p272:64:64-i64:64-i128:128-f80:128-n8:16:32:64-S128"
target triple = "x86_64-pc-linux-gnu"

%struct.fdt_header = type { i32, i32, i32, i32, i32, i32, i32, i32, i32, i32 }

; Function Attrs: inlinehint nounwind uwtable
define internal i32 @fdt32_ld(ptr noundef %0) #2 {
  %2 = alloca ptr, align 8
  %3 = alloca ptr, align 8
  store ptr %0, ptr %2, align 8
  call void @llvm.lifetime.start.p0(i64 8, ptr %3) #5
  %4 = load ptr, ptr %2, align 8
  store ptr %4, ptr %3, align 8
  %5 = load ptr, ptr %3, align 8
  %6 = getelementptr inbounds i8, ptr %5, i64 0
  %7 = load i8, ptr %6, align 1
  %8 = zext i8 %7 to i32
  %9 = shl i32 %8, 24
  %10 = load ptr, ptr %3, align 8
  %11 = getelementptr inbounds i8, ptr %10, i64 1
  %12 = load i8, ptr %11, align 1
  %13 = zext i8 %12 to i32
  %14 = shl i32 %13, 16
  %15 = or i32 %9, %14
  %16 = load ptr, ptr %3, align 8
  %17 = getelementptr inbounds i8, ptr %16, i64 2
  %18 = load i8, ptr %17, align 1
  %19 = zext i8 %18 to i32
  %20 = shl i32 %19, 8
  %21 = or i32 %15, %20
  %22 = load ptr, ptr %3, align 8
  %23 = getelementptr inbounds i8, ptr %22, i64 3
  %24 = load i8, ptr %23, align 1
  %25 = zext i8 %24 to i32
  %26 = or i32 %21, %25
  call void @llvm.lifetime.end.p0(i64 8, ptr %3) #5
  ret i32 %26
}

; Function Attrs: inlinehint nounwind uwtable
define internal i32 @fdt32_to_cpu(i32 noundef %0) #2 {
  %2 = alloca i32, align 4
  store i32 %0, ptr %2, align 4
  %3 = getelementptr inbounds i8, ptr %2, i64 0
  %4 = load i8, ptr %3, align 4
  %5 = zext i8 %4 to i64
  %6 = shl i64 %5, 24
  %7 = getelementptr inbounds i8, ptr %2, i64 1
  %8 = load i8, ptr %7, align 1
  %9 = zext i8 %8 to i64
  %10 = shl i64 %9, 16
  %11 = or i64 %6, %10
  %12 = getelementptr inbounds i8, ptr %2, i64 2
  %13 = load i8, ptr %12, align 2
  %14 = zext i8 %13 to i64
  %15 = shl i64 %14, 8
  %16 = or i64 %11, %15
  %17 = getelementptr inbounds i8, ptr %2, i64 3
  %18 = load i8, ptr %17, align 1
  %19 = zext i8 %18 to i64
  %20 = or i64 %16, %19
  %21 = trunc i64 %20 to i32
  ret i32 %21
}

; Function Attrs: inlinehint nounwind uwtable
define internal zeroext i1 @can_assume_(i32 noundef %0) #2 {
  %2 = alloca i32, align 4
  store i32 %0, ptr %2, align 4
  %3 = load i32, ptr %2, align 4
  %4 = and i32 0, %3
  %5 = icmp ne i32 %4, 0
  ret i1 %5
}

; Function Attrs: nounwind uwtable
define dso_local i32 @fdt_next_tag(ptr noundef %0, i32 noundef %1, ptr noundef %2) #0 {
  %4 = alloca i32, align 4
  %5 = alloca ptr, align 8
  %6 = alloca i32, align 4
  %7 = alloca ptr, align 8
  %8 = alloca ptr, align 8
  %9 = alloca ptr, align 8
  %10 = alloca i32, align 4
  %11 = alloca i32, align 4
  %12 = alloca ptr, align 8
  %13 = alloca i32, align 4
  store ptr %0, ptr %5, align 8
  store i32 %1, ptr %6, align 4
  store ptr %2, ptr %7, align 8
  call void @llvm.lifetime.start.p0(i64 8, ptr %8) #5
  store ptr null, ptr %8, align 8, !annotation !4
  call void @llvm.lifetime.start.p0(i64 8, ptr %9) #5
  store ptr null, ptr %9, align 8, !annotation !4
  call void @llvm.lifetime.start.p0(i64 4, ptr %10) #5
  store i32 0, ptr %10, align 4, !annotation !4
  call void @llvm.lifetime.start.p0(i64 4, ptr %11) #5
  %14 = load i32, ptr %6, align 4
  store i32 %14, ptr %11, align 4
  call void @llvm.lifetime.start.p0(i64 8, ptr %12) #5
  store ptr null, ptr %12, align 8, !annotation !4
  %15 = load ptr, ptr %7, align 8
  store i32 -8, ptr %15, align 4
  %16 = load ptr, ptr %5, align 8
  %17 = load i32, ptr %11, align 4
  %18 = call ptr @fdt_offset_ptr(ptr noundef %16, i32 noundef %17, i32 noundef 4)
  store ptr %18, ptr %8, align 8
  %19 = call zeroext i1 @can_assume_(i32 noundef 1)
  br i1 %19, label %24, label %20

20:                                               ; preds = %3
  %21 = load ptr, ptr %8, align 8
  %22 = icmp ne ptr %21, null
  br i1 %22, label %24, label %23

23:                                               ; preds = %20
  store i32 9, ptr %4, align 4
  store i32 1, ptr %13, align 4
  br label %119

24:                                               ; preds = %20, %3
  %25 = load ptr, ptr %8, align 8
  %26 = load i32, ptr %25, align 4
  %27 = call i32 @fdt32_to_cpu(i32 noundef %26)
  store i32 %27, ptr %10, align 4
  %28 = load i32, ptr %11, align 4
  %29 = sext i32 %28 to i64
  %30 = add i64 %29, 4
  %31 = trunc i64 %30 to i32
  store i32 %31, ptr %11, align 4
  %32 = load ptr, ptr %7, align 8
  store i32 -11, ptr %32, align 4
  %33 = load i32, ptr %10, align 4
  switch i32 %33, label %100 [
    i32 1, label %34
    i32 3, label %57
    i32 9, label %99
    i32 2, label %99
    i32 4, label %99
  ]

34:                                               ; preds = %24
  br label %35

35:                                               ; preds = %48, %34
  %36 = load ptr, ptr %5, align 8
  %37 = load i32, ptr %11, align 4
  %38 = add i32 %37, 1
  store i32 %38, ptr %11, align 4
  %39 = call ptr @fdt_offset_ptr(ptr noundef %36, i32 noundef %37, i32 noundef 1)
  store ptr %39, ptr %12, align 8
  br label %40

40:                                               ; preds = %35
  %41 = load ptr, ptr %12, align 8
  %42 = icmp ne ptr %41, null
  br i1 %42, label %43, label %48

43:                                               ; preds = %40
  %44 = load ptr, ptr %12, align 8
  %45 = load i8, ptr %44, align 1
  %46 = sext i8 %45 to i32
  %47 = icmp ne i32 %46, 0
  br label %48

48:                                               ; preds = %43, %40
  %49 = phi i1 [ false, %40 ], [ %47, %43 ]
  br i1 %49, label %35, label %50, !llvm.loop !5

50:                                               ; preds = %48
  %51 = call zeroext i1 @can_assume_(i32 noundef 1)
  br i1 %51, label %56, label %52

52:                                               ; preds = %50
  %53 = load ptr, ptr %12, align 8
  %54 = icmp ne ptr %53, null
  br i1 %54, label %56, label %55

55:                                               ; preds = %52
  store i32 9, ptr %4, align 4
  store i32 1, ptr %13, align 4
  br label %119

56:                                               ; preds = %52, %50
  br label %101

57:                                               ; preds = %24
  %58 = load ptr, ptr %5, align 8
  %59 = load i32, ptr %11, align 4
  %60 = call ptr @fdt_offset_ptr(ptr noundef %58, i32 noundef %59, i32 noundef 4)
  store ptr %60, ptr %9, align 8
  %61 = call zeroext i1 @can_assume_(i32 noundef 1)
  br i1 %61, label %66, label %62

62:                                               ; preds = %57
  %63 = load ptr, ptr %9, align 8
  %64 = icmp ne ptr %63, null
  br i1 %64, label %66, label %65

65:                                               ; preds = %62
  store i32 9, ptr %4, align 4
  store i32 1, ptr %13, align 4
  br label %119

66:                                               ; preds = %62, %57
  %67 = load ptr, ptr %9, align 8
  %68 = load i32, ptr %67, align 4
  %69 = call i32 @fdt32_to_cpu(i32 noundef %68)
  %70 = zext i32 %69 to i64
  %71 = add i64 8, %70
  %72 = load i32, ptr %11, align 4
  %73 = sext i32 %72 to i64
  %74 = add i64 %73, %71
  %75 = trunc i64 %74 to i32
  store i32 %75, ptr %11, align 4
  %76 = call zeroext i1 @can_assume_(i32 noundef 4)
  br i1 %76, label %98, label %77

77:                                               ; preds = %66
  %78 = load ptr, ptr %5, align 8
  %79 = getelementptr inbounds nuw %struct.fdt_header, ptr %78, i32 0, i32 5
  %80 = call i32 @fdt32_ld(ptr noundef %79)
  %81 = icmp ult i32 %80, 16
  br i1 %81, label %82, label %98

82:                                               ; preds = %77
  %83 = load ptr, ptr %9, align 8
  %84 = load i32, ptr %83, align 4
  %85 = call i32 @fdt32_to_cpu(i32 noundef %84)
  %86 = icmp uge i32 %85, 8
  br i1 %86, label %87, label %98

87:                                               ; preds = %82
  %88 = load i32, ptr %11, align 4
  %89 = load ptr, ptr %9, align 8
  %90 = load i32, ptr %89, align 4
  %91 = call i32 @fdt32_to_cpu(i32 noundef %90)
  %92 = sub i32 %88, %91
  %93 = urem i32 %92, 8
  %94 = icmp ne i32 %93, 0
  br i1 %94, label %95, label %98

95:                                               ; preds = %87
  %96 = load i32, ptr %11, align 4
  %97 = add i32 %96, 4
  store i32 %97, ptr %11, align 4
  br label %98

98:                                               ; preds = %95, %87, %82, %77, %66
  br label %101

99:                                               ; preds = %24, %24, %24
  br label %101

100:                                              ; preds = %24
  store i32 9, ptr %4, align 4
  store i32 1, ptr %13, align 4
  br label %119

101:                                              ; preds = %99, %98, %56
  %102 = load ptr, ptr %5, align 8
  %103 = load i32, ptr %6, align 4
  %104 = load i32, ptr %11, align 4
  %105 = load i32, ptr %6, align 4
  %106 = sub i32 %104, %105
  %107 = call ptr @fdt_offset_ptr(ptr noundef %102, i32 noundef %103, i32 noundef %106)
  %108 = icmp ne ptr %107, null
  br i1 %108, label %110, label %109

109:                                              ; preds = %101
  store i32 9, ptr %4, align 4
  store i32 1, ptr %13, align 4
  br label %119

110:                                              ; preds = %101
  %111 = load i32, ptr %11, align 4
  %112 = sext i32 %111 to i64
  %113 = add i64 %112, 4
  %114 = sub i64 %113, 1
  %115 = and i64 %114, -4
  %116 = trunc i64 %115 to i32
  %117 = load ptr, ptr %7, align 8
  store i32 %116, ptr %117, align 4
  %118 = load i32, ptr %10, align 4
  store i32 %118, ptr %4, align 4
  store i32 1, ptr %13, align 4
  br label %119

119:                                              ; preds = %110, %109, %100, %65, %55, %23
  call void @llvm.lifetime.end.p0(i64 8, ptr %12) #5
  call void @llvm.lifetime.end.p0(i64 4, ptr %11) #5
  call void @llvm.lifetime.end.p0(i64 4, ptr %10) #5
  call void @llvm.lifetime.end.p0(i64 8, ptr %9) #5
  call void @llvm.lifetime.end.p0(i64 8, ptr %8) #5
  %120 = load i32, ptr %4, align 4
  ret i32 %120
}