; Function Attrs: nofree norecurse nosync nounwind memory(read, argmem: readwrite, inaccessiblemem: none) uwtable
define dso_local noundef i32 @fdt_next_tag(ptr noundef readonly captures(address) %0, i32 noundef %1, ptr noundef writeonly captures(none) initializes((0, 4)) %2) local_unnamed_addr #3 {
  store i32 -8, ptr %2, align 4
  %4 = tail call ptr @fdt_offset_ptr(ptr noundef %0, i32 noundef %1, i32 noundef 4)
  %.not = icmp eq ptr %4, null
  br i1 %.not, label %.critedge43, label %5

5:                                                ; preds = %3
  %6 = load i32, ptr %4, align 4
  %rev.i = tail call noundef i32 @llvm.bswap.i32(i32 %6)
  %7 = add i32 %1, 4
  store i32 -11, ptr %2, align 4
  switch i32 %rev.i, label %.critedge43 [
    i32 1, label %.preheader
    i32 3, label %12
    i32 9, label %.critedge
    i32 2, label %.critedge
    i32 4, label %.critedge
  ]

.preheader:                                       ; preds = %5, %9
  %.0 = phi i32 [ %10, %9 ], [ %7, %5 ]
  %8 = tail call ptr @fdt_offset_ptr(ptr noundef %0, i32 noundef %.0, i32 noundef 1)
  %.not41 = icmp eq ptr %8, null
  br i1 %.not41, label %.critedge43, label %9

9:                                                ; preds = %.preheader
  %10 = add i32 %.0, 1
  %11 = load i8, ptr %8, align 1
  %.not40 = icmp eq i8 %11, 0
  br i1 %.not40, label %.critedge, label %.preheader, !llvm.loop !4

12:                                               ; preds = %5
  %13 = tail call ptr @fdt_offset_ptr(ptr noundef %0, i32 noundef %7, i32 noundef 4)
  %.not38 = icmp eq ptr %13, null
  br i1 %.not38, label %.critedge43, label %14

14:                                               ; preds = %12
  %15 = load i32, ptr %13, align 4
  %rev.i44 = tail call noundef i32 @llvm.bswap.i32(i32 %15)
  %16 = add i32 %1, 12
  %17 = add i32 %16, %rev.i44
  %18 = getelementptr inbounds nuw i8, ptr %0, i64 20
  %19 = load i8, ptr %18, align 1
  %20 = zext i8 %19 to i32
  %21 = shl nuw i32 %20, 24
  %22 = getelementptr inbounds nuw i8, ptr %0, i64 21
  %23 = load i8, ptr %22, align 1
  %24 = zext i8 %23 to i32
  %25 = shl nuw nsw i32 %24, 16
  %26 = or disjoint i32 %25, %21
  %27 = getelementptr inbounds nuw i8, ptr %0, i64 22
  %28 = load i8, ptr %27, align 1
  %29 = zext i8 %28 to i32
  %30 = shl nuw nsw i32 %29, 8
  %31 = or disjoint i32 %26, %30
  %32 = getelementptr inbounds nuw i8, ptr %0, i64 23
  %33 = load i8, ptr %32, align 1
  %34 = zext i8 %33 to i32
  %35 = or disjoint i32 %31, %34
  %36 = icmp ult i32 %35, 16
  %37 = icmp ugt i32 %rev.i44, 7
  %or.cond = and i1 %37, %36
  br i1 %or.cond, label %38, label %.critedge

38:                                               ; preds = %14
  %39 = and i32 %16, 7
  %.not39 = icmp eq i32 %39, 0
  %40 = add i32 %17, 4
  %spec.select = select i1 %.not39, i32 %17, i32 %40
  br label %.critedge

.critedge:                                        ; preds = %9, %38, %5, %5, %5, %14
  %.1 = phi i32 [ %7, %5 ], [ %7, %5 ], [ %7, %5 ], [ %17, %14 ], [ %spec.select, %38 ], [ %10, %9 ]
  %41 = sub i32 %.1, %1
  %42 = tail call ptr @fdt_offset_ptr(ptr noundef %0, i32 noundef %1, i32 noundef %41)
  %.not42 = icmp eq ptr %42, null
  br i1 %.not42, label %.critedge43, label %43

43:                                               ; preds = %.critedge
  %44 = add i32 %.1, 3
  %45 = and i32 %44, -4
  store i32 %45, ptr %2, align 4
  br label %.critedge43

.critedge43:                                      ; preds = %.preheader, %.critedge, %5, %12, %3, %43
  %.036 = phi i32 [ %rev.i, %43 ], [ 9, %3 ], [ 9, %12 ], [ 9, %5 ], [ 9, %.critedge ], [ 9, %.preheader ]
  ret i32 %.036
}